; ModuleID = 'probe1.38febe8a-cgu.0'
source_filename = "probe1.38febe8a-cgu.0"
target datalayout = "e-m:o-p270:32:32-p271:32:32-p272:64:64-i64:64-f80:128-n8:16:32:64-S128"
target triple = "x86_64-apple-macosx10.7.0"

; core::f64::<impl f64>::to_int_unchecked
; Function Attrs: inlinehint uwtable
define i32 @"_ZN4core3f6421_$LT$impl$u20$f64$GT$16to_int_unchecked17h283d6e8a3c72f559E"(double %self) unnamed_addr #0 {
start:
; call <f64 as core::convert::num::FloatToInt<i32>>::to_int_unchecked
  %0 = call i32 @"_ZN65_$LT$f64$u20$as$u20$core..convert..num..FloatToInt$LT$i32$GT$$GT$16to_int_unchecked17he0e14433c9bc543dE"(double %self)
  br label %bb1

bb1:                                              ; preds = %start
  ret i32 %0
}

; <f64 as core::convert::num::FloatToInt<i32>>::to_int_unchecked
; Function Attrs: inlinehint uwtable
define internal i32 @"_ZN65_$LT$f64$u20$as$u20$core..convert..num..FloatToInt$LT$i32$GT$$GT$16to_int_unchecked17he0e14433c9bc543dE"(double %self) unnamed_addr #0 {
start:
  %0 = alloca i32, align 4
  %1 = fptosi double %self to i32
  store i32 %1, i32* %0, align 4
  %2 = load i32, i32* %0, align 4
  br label %bb1

bb1:                                              ; preds = %start
  ret i32 %2
}

; probe1::probe
; Function Attrs: uwtable
define void @_ZN6probe15probe17ha5d9255eec1d4619E() unnamed_addr #1 {
start:
; call core::f64::<impl f64>::to_int_unchecked
  %_1 = call i32 @"_ZN4core3f6421_$LT$impl$u20$f64$GT$16to_int_unchecked17h283d6e8a3c72f559E"(double 1.000000e+00)
  br label %bb1

bb1:                                              ; preds = %start
  ret void
}

attributes #0 = { inlinehint uwtable "frame-pointer"="all" "probe-stack"="__rust_probestack" "target-cpu"="core2" }
attributes #1 = { uwtable "frame-pointer"="all" "probe-stack"="__rust_probestack" "target-cpu"="core2" }

!llvm.module.flags = !{!0}

!0 = !{i32 7, !"PIC Level", i32 2}
